; Function Attrs: nounwind uwtable
define noalias nonnull ptr @l_Lake_Toml_elabToml___lambda__1___boxed(ptr noundef %0, ptr noundef %1, ptr noundef %2, ptr noundef %3, ptr noundef %4) #2 {
  %6 = ptrtoint ptr %0 to i64
  %7 = and i64 %6, 1
  %.not = icmp eq i64 %7, 0
  br i1 %.not, label %8, label %lean_dec.exit10

8:                                                ; preds = %5
  %9 = load i32, ptr %0, align 4, !tbaa !4
  %10 = icmp sgt i32 %9, 1
  br i1 %10, label %11, label %13, !prof !11

11:                                               ; preds = %8
  %12 = add nsw i32 %9, -1
  store i32 %12, ptr %0, align 4, !tbaa !4
  br label %lean_dec.exit10

13:                                               ; preds = %8
  %.not.i = icmp eq i32 %9, 0
  br i1 %.not.i, label %lean_dec.exit10, label %14

14:                                               ; preds = %13
  tail call void @lean_dec_ref_cold(ptr noundef nonnull %0) #8
  br label %lean_dec.exit10

lean_dec.exit10:                                  ; preds = %14, %13, %11, %5
  tail call void @lean_inc_heartbeat() #8
  %15 = tail call noalias ptr @mi_malloc_small(i64 noundef 24) #8
  %16 = icmp eq ptr %15, null
  br i1 %16, label %17, label %lean_alloc_ctor.exit.i

17:                                               ; preds = %lean_dec.exit10
  tail call void @lean_internal_panic_out_of_memory() #9
  unreachable

lean_alloc_ctor.exit.i:                           ; preds = %lean_dec.exit10
  %18 = getelementptr inbounds nuw i8, ptr %15, i64 4
  store i32 1, ptr %15, align 4, !tbaa !4
  store i32 131096, ptr %18, align 4
  %19 = getelementptr inbounds nuw i8, ptr %15, i64 8
  store ptr inttoptr (i64 1 to ptr), ptr %19, align 8, !tbaa !9
  %20 = getelementptr inbounds nuw i8, ptr %15, i64 16
  store ptr %1, ptr %20, align 8, !tbaa !9
  tail call void @lean_inc_heartbeat() #8
  %21 = tail call noalias ptr @mi_malloc_small(i64 noundef 24) #8
  %22 = icmp eq ptr %21, null
  br i1 %22, label %23, label %l_Lake_Toml_elabToml___lambda__1.exit

23:                                               ; preds = %lean_alloc_ctor.exit.i
  tail call void @lean_internal_panic_out_of_memory() #9
  unreachable

l_Lake_Toml_elabToml___lambda__1.exit:            ; preds = %lean_alloc_ctor.exit.i
  %24 = getelementptr inbounds nuw i8, ptr %21, i64 4
  store i32 1, ptr %21, align 4, !tbaa !4
  store i32 131096, ptr %24, align 4
  %25 = getelementptr inbounds nuw i8, ptr %21, i64 8
  store ptr %15, ptr %25, align 8, !tbaa !9
  %26 = getelementptr inbounds nuw i8, ptr %21, i64 16
  store ptr %4, ptr %26, align 8, !tbaa !9
  %27 = ptrtoint ptr %3 to i64
  %28 = and i64 %27, 1
  %.not15 = icmp eq i64 %28, 0
  br i1 %.not15, label %29, label %lean_dec.exit9

29:                                               ; preds = %l_Lake_Toml_elabToml___lambda__1.exit
  %30 = load i32, ptr %3, align 4, !tbaa !4
  %31 = icmp sgt i32 %30, 1
  br i1 %31, label %32, label %34, !prof !11

32:                                               ; preds = %29
  %33 = add nsw i32 %30, -1
  store i32 %33, ptr %3, align 4, !tbaa !4
  br label %lean_dec.exit9

34:                                               ; preds = %29
  %.not.i11 = icmp eq i32 %30, 0
  br i1 %.not.i11, label %lean_dec.exit9, label %35

35:                                               ; preds = %34
  tail call void @lean_dec_ref_cold(ptr noundef nonnull %3) #8
  br label %lean_dec.exit9

lean_dec.exit9:                                   ; preds = %35, %34, %32, %l_Lake_Toml_elabToml___lambda__1.exit
  %36 = ptrtoint ptr %2 to i64
  %37 = and i64 %36, 1
  %.not16 = icmp eq i64 %37, 0
  br i1 %.not16, label %38, label %lean_dec.exit

38:                                               ; preds = %lean_dec.exit9
  %39 = load i32, ptr %2, align 4, !tbaa !4
  %40 = icmp sgt i32 %39, 1
  br i1 %40, label %41, label %43, !prof !11

41:                                               ; preds = %38
  %42 = add nsw i32 %39, -1
  store i32 %42, ptr %2, align 4, !tbaa !4
  br label %lean_dec.exit

43:                                               ; preds = %38
  %.not.i13 = icmp eq i32 %39, 0
  br i1 %.not.i13, label %lean_dec.exit, label %44

44:                                               ; preds = %43
  tail call void @lean_dec_ref_cold(ptr noundef nonnull %2) #8
  br label %lean_dec.exit

lean_dec.exit:                                    ; preds = %44, %43, %41, %lean_dec.exit9
  ret ptr %21
}